target datalayout = "e-m:e-p270:32:32-p271:32:32-p272:64:64-i64:64-i128:128-f80:128-n8:16:32:64-S128"
target triple = "x86_64-pc-linux-gnu"

%struct.Qureg = type { i32, i32, i32, i64, i64, i32, i32, %struct.ComplexArray, %struct.ComplexArray, %struct.ComplexArray, ptr, ptr, ptr, ptr, ptr, ptr }
%struct.ComplexArray = type { ptr, ptr }
%struct.QASMLogger = type { ptr, i32, i32, i32 }

@.str.31 = private unnamed_addr constant [56 x i8] c"The following %d gates resulted from a single %s() call\00", align 1
@.str.32 = private unnamed_addr constant [29 x i8] c"multiControlledMultiQubitNot\00", align 1
@.str.33 = private unnamed_addr constant [14 x i8] c"multiQubitNot\00", align 1

; Function Attrs: nounwind uwtable
define void @qasm_recordMultiControlledMultiQubitNot(ptr noundef byval(%struct.Qureg) align 8 %0, ptr noundef %1, i32 noundef %2, ptr noundef %3, i32 noundef %4) #0 {
  %6 = alloca ptr, align 8
  %7 = alloca i32, align 4
  %8 = alloca ptr, align 8
  %9 = alloca i32, align 4
  %10 = alloca i32, align 4
  store ptr %1, ptr %6, align 8, !tbaa !26
  store i32 %2, ptr %7, align 4, !tbaa !25
  store ptr %3, ptr %8, align 8, !tbaa !26
  store i32 %4, ptr %9, align 4, !tbaa !25
  %11 = getelementptr inbounds nuw %struct.Qureg, ptr %0, i32 0, i32 15
  %12 = load ptr, ptr %11, align 8, !tbaa !10
  %13 = getelementptr inbounds nuw %struct.QASMLogger, ptr %12, i32 0, i32 3
  %14 = load i32, ptr %13, align 8, !tbaa !17
  %15 = icmp ne i32 %14, 0
  br i1 %15, label %17, label %16

16:                                               ; preds = %5
  br label %38

17:                                               ; preds = %5
  %18 = load i32, ptr %9, align 4, !tbaa !25
  %19 = load i32, ptr %7, align 4, !tbaa !25
  %20 = icmp sgt i32 %19, 0
  %21 = select i1 %20, ptr @.str.32, ptr @.str.33
  call void (ptr, ptr, ...) @qasm_recordComment(ptr noundef byval(%struct.Qureg) align 8 %0, ptr noundef @.str.31, i32 noundef %18, ptr noundef %21)
  call void @llvm.lifetime.start.p0(i64 4, ptr %10) #7
  store i32 0, ptr %10, align 4, !tbaa !25
  br label %22

22:                                               ; preds = %35, %17
  %23 = load i32, ptr %10, align 4, !tbaa !25
  %24 = load i32, ptr %9, align 4, !tbaa !25
  %25 = icmp slt i32 %23, %24
  br i1 %25, label %27, label %26

26:                                               ; preds = %22
  call void @llvm.lifetime.end.p0(i64 4, ptr %10) #7
  br label %38

27:                                               ; preds = %22
  %28 = load ptr, ptr %6, align 8, !tbaa !26
  %29 = load i32, ptr %7, align 4, !tbaa !25
  %30 = load ptr, ptr %8, align 8, !tbaa !26
  %31 = load i32, ptr %10, align 4, !tbaa !25
  %32 = sext i32 %31 to i64
  %33 = getelementptr inbounds i32, ptr %30, i64 %32
  %34 = load i32, ptr %33, align 4, !tbaa !25
  call void @addGateToQASM(ptr noundef byval(%struct.Qureg) align 8 %0, i32 noundef 0, ptr noundef %28, i32 noundef %29, i32 noundef %34, ptr noundef null, i32 noundef 0)
  br label %35

35:                                               ; preds = %27
  %36 = load i32, ptr %10, align 4, !tbaa !25
  %37 = add nsw i32 %36, 1
  store i32 %37, ptr %10, align 4, !tbaa !25
  br label %22

38:                                               ; preds = %16, %26
  ret void
}